target datalayout = "e-m:e-p270:32:32-p271:32:32-p272:64:64-i64:64-i128:128-f80:128-n8:16:32:64-S128"
target triple = "x86_64-pc-linux-gnu"

%"class.rocksdb::Slice" = type { ptr, i64 }
%"class.rocksdb::MinIterComparator" = type { ptr }
%"class.std::vector.3" = type { %"struct.std::_Vector_base.4" }
%"struct.std::_Vector_base.4" = type { %"struct.std::_Vector_base<rocksdb::InternalIteratorBase<rocksdb::Slice> *, std::allocator<rocksdb::InternalIteratorBase<rocksdb::Slice> *>>::_Vector_impl" }
%"struct.std::_Vector_base<rocksdb::InternalIteratorBase<rocksdb::Slice> *, std::allocator<rocksdb::InternalIteratorBase<rocksdb::Slice> *>>::_Vector_impl" = type { %"struct.std::_Vector_base<rocksdb::InternalIteratorBase<rocksdb::Slice> *, std::allocator<rocksdb::InternalIteratorBase<rocksdb::Slice> *>>::_Vector_impl_data" }
%"struct.std::_Vector_base<rocksdb::InternalIteratorBase<rocksdb::Slice> *, std::allocator<rocksdb::InternalIteratorBase<rocksdb::Slice> *>>::_Vector_impl_data" = type { ptr, ptr, ptr }
%"class.rocksdb::ForwardIterator" = type { %"class.rocksdb::InternalIteratorBase", ptr, %"struct.rocksdb::ReadOptions", ptr, ptr, ptr, i8, %"class.std::priority_queue", ptr, ptr, %"class.std::vector.3", %"class.std::vector.3", %"class.std::vector.8", ptr, i8, %"class.rocksdb::Status", %"class.rocksdb::Status", i8, i8, %"class.rocksdb::IterKey", i8, i8, ptr, [8 x i8], %"class.rocksdb::Arena" }
%"class.rocksdb::InternalIteratorBase" = type { ptr, %"class.rocksdb::Cleanable" }
%"class.rocksdb::Cleanable" = type { %"struct.rocksdb::Cleanable::Cleanup" }
%"struct.rocksdb::Cleanable::Cleanup" = type { ptr, ptr, ptr, ptr }
%"struct.rocksdb::ReadOptions" = type { ptr, ptr, ptr, %"class.std::chrono::duration", %"class.std::chrono::duration", i32, i32, i64, %"class.std::optional", i8, i8, i8, i8, i8, i64, i64, ptr, ptr, i8, i8, i8, i8, i8, i8, i8, i8, %"class.std::function", i8, i8, i8, i8, i64 }
%"class.std::chrono::duration" = type { i64 }
%"class.std::optional" = type { %"struct.std::_Optional_base" }
%"struct.std::_Optional_base" = type { %"struct.std::_Optional_payload" }
%"struct.std::_Optional_payload" = type { %"struct.std::_Optional_payload_base.base", [7 x i8] }
%"struct.std::_Optional_payload_base.base" = type <{ %"union.std::_Optional_payload_base<unsigned long>::_Storage", i8 }>
%"union.std::_Optional_payload_base<unsigned long>::_Storage" = type { i64 }
%"class.std::function" = type { %"class.std::_Function_base", ptr }
%"class.std::_Function_base" = type { %"union.std::_Any_data", ptr }
%"union.std::_Any_data" = type { %"union.std::_Nocopy_types" }
%"union.std::_Nocopy_types" = type { { i64, i64 } }
%"class.std::priority_queue" = type { %"class.std::vector.3", %"class.rocksdb::MinIterComparator" }
%"class.std::vector.8" = type { %"struct.std::_Vector_base.9" }
%"struct.std::_Vector_base.9" = type { %"struct.std::_Vector_base<rocksdb::ForwardLevelIterator *, std::allocator<rocksdb::ForwardLevelIterator *>>::_Vector_impl" }
%"struct.std::_Vector_base<rocksdb::ForwardLevelIterator *, std::allocator<rocksdb::ForwardLevelIterator *>>::_Vector_impl" = type { %"struct.std::_Vector_base<rocksdb::ForwardLevelIterator *, std::allocator<rocksdb::ForwardLevelIterator *>>::_Vector_impl_data" }
%"struct.std::_Vector_base<rocksdb::ForwardLevelIterator *, std::allocator<rocksdb::ForwardLevelIterator *>>::_Vector_impl_data" = type { ptr, ptr, ptr }
%"class.rocksdb::Status" = type { i8, i8, i8, i8, i8, i8, %"class.std::unique_ptr" }
%"class.std::unique_ptr" = type { %"struct.std::__uniq_ptr_data" }
%"struct.std::__uniq_ptr_data" = type { %"class.std::__uniq_ptr_impl" }
%"class.std::__uniq_ptr_impl" = type { %"class.std::tuple" }
%"class.std::tuple" = type { %"struct.std::_Tuple_impl" }
%"struct.std::_Tuple_impl" = type { %"struct.std::_Head_base.14" }
%"struct.std::_Head_base.14" = type { ptr }
%"class.rocksdb::IterKey" = type { ptr, ptr, i64, i64, [39 x i8], i8, [39 x i8], ptr, i64, %"struct.std::array" }
%"struct.std::array" = type { [5 x %"class.rocksdb::Slice"] }
%"class.rocksdb::Arena" = type { %"class.rocksdb::Allocator", [8 x i8], [2048 x i8], i64, %"class.std::deque", %"class.std::deque.18", i64, ptr, ptr, i64, i64, i64, ptr }
%"class.rocksdb::Allocator" = type { ptr }
%"class.std::deque" = type { %"class.std::_Deque_base" }
%"class.std::_Deque_base" = type { %"struct.std::_Deque_base<std::unique_ptr<char[]>, std::allocator<std::unique_ptr<char[]>>>::_Deque_impl" }
%"struct.std::_Deque_base<std::unique_ptr<char[]>, std::allocator<std::unique_ptr<char[]>>>::_Deque_impl" = type { %"struct.std::_Deque_base<std::unique_ptr<char[]>, std::allocator<std::unique_ptr<char[]>>>::_Deque_impl_data" }
%"struct.std::_Deque_base<std::unique_ptr<char[]>, std::allocator<std::unique_ptr<char[]>>>::_Deque_impl_data" = type { ptr, i64, %"struct.std::_Deque_iterator", %"struct.std::_Deque_iterator" }
%"struct.std::_Deque_iterator" = type { ptr, ptr, ptr, ptr }
%"class.std::deque.18" = type { %"class.std::_Deque_base.19" }
%"class.std::_Deque_base.19" = type { %"struct.std::_Deque_base<rocksdb::MemMapping, std::allocator<rocksdb::MemMapping>>::_Deque_impl" }
%"struct.std::_Deque_base<rocksdb::MemMapping, std::allocator<rocksdb::MemMapping>>::_Deque_impl" = type { %"struct.std::_Deque_base<rocksdb::MemMapping, std::allocator<rocksdb::MemMapping>>::_Deque_impl_data" }
%"struct.std::_Deque_base<rocksdb::MemMapping, std::allocator<rocksdb::MemMapping>>::_Deque_impl_data" = type { ptr, i64, %"struct.std::_Deque_iterator.23", %"struct.std::_Deque_iterator.23" }
%"struct.std::_Deque_iterator.23" = type { ptr, ptr, ptr, ptr }

; Function Attrs: mustprogress uwtable
define noundef i64 @_ZNK7rocksdb15ForwardIterator15write_unix_timeEv(ptr noundef nonnull align 16 dereferenceable(2944) %0) unnamed_addr #4 align 2 {
  %2 = alloca ptr, align 8
  store ptr %0, ptr %2, align 8, !tbaa !66
  %3 = load ptr, ptr %2, align 8
  %4 = getelementptr inbounds nuw %"class.rocksdb::ForwardIterator", ptr %3, i32 0, i32 13
  %5 = load ptr, ptr %4, align 16, !tbaa !150
  %6 = load ptr, ptr %5, align 8, !tbaa !26
  %7 = getelementptr inbounds ptr, ptr %6, i64 12
  %8 = load ptr, ptr %7, align 8
  %9 = call noundef i64 %8(ptr noundef nonnull align 8 dereferenceable(40) %5)
  ret i64 %9
}